target datalayout = "e-m:e-p270:32:32-p271:32:32-p272:64:64-i64:64-i128:128-f80:128-n8:16:32:64-S128"
target triple = "x86_64-pc-linux-gnu"

%"class.std::__cxx11::basic_string" = type { %"struct.std::__cxx11::basic_string<char>::_Alloc_hider", i64, %union.anon }
%"struct.std::__cxx11::basic_string<char>::_Alloc_hider" = type { ptr }
%union.anon = type { i64, [8 x i8] }
%"class.absl::debian2::str_format_internal::FormatSpecTemplate" = type { %"class.absl::debian2::UntypedFormatSpec" }
%"class.absl::debian2::UntypedFormatSpec" = type { %"class.absl::debian2::str_format_internal::UntypedFormatSpecImpl" }
%"class.absl::debian2::str_format_internal::UntypedFormatSpecImpl" = type { ptr, i64 }
%"class.absl::debian2::Span" = type { ptr, i64 }
%"class.std::initializer_list" = type { ptr, i64 }
%"class.absl::debian2::str_format_internal::FormatArgImpl" = type { %"union.absl::debian2::str_format_internal::FormatArgImpl::Data", ptr }
%"union.absl::debian2::str_format_internal::FormatArgImpl::Data" = type { ptr }
%"class.absl::debian2::string_view" = type { ptr, i64 }
%class.anon = type { i8 }

@.str.1 = private unnamed_addr constant [205 x i8] c"universal_poker(betting=limit,numPlayers=2,numRounds=4,blind=10 5,firstPlayer=2 1,numSuits=4,numRanks=13,numHoleCards=2,numBoardCards=0 3 1 1,raiseSize=10 10 20 20,maxRaises=3 4 4 4,bettingAbstraction=%s)\00", align 1

; Function Attrs: mustprogress nounwind uwtable
define linkonce_odr ptr @_ZN4absl7debian219str_format_internal13FormatArgImpl7ManagerINSt7__cxx1112basic_stringIcSt11char_traitsIcESaIcEEELNS2_13StoragePolicyE0EE8SetValueERKS9_(ptr noundef nonnull align 8 dereferenceable(32) %0) #2 comdat align 2 {
  %2 = alloca %"union.absl::debian2::str_format_internal::FormatArgImpl::Data", align 8
  %3 = alloca ptr, align 8
  store ptr %0, ptr %3, align 8
  %4 = load ptr, ptr %3, align 8
  store ptr %4, ptr %2, align 8
  %5 = getelementptr inbounds nuw %"union.absl::debian2::str_format_internal::FormatArgImpl::Data", ptr %2, i32 0, i32 0
  %6 = load ptr, ptr %5, align 8
  ret ptr %6
}

; Function Attrs: mustprogress nounwind uwtable
define linkonce_odr noundef i64 @_ZNK4absl7debian211string_view4sizeEv(ptr noundef nonnull align 8 dereferenceable(16) %0) #2 comdat align 2 {
  %2 = alloca ptr, align 8
  store ptr %0, ptr %2, align 8
  %3 = load ptr, ptr %2, align 8
  %4 = getelementptr inbounds nuw %"class.absl::debian2::string_view", ptr %3, i32 0, i32 1
  %5 = load i64, ptr %4, align 8
  ret i64 %5
}

; Function Attrs: mustprogress nounwind uwtable
define linkonce_odr noundef ptr @_ZNK4absl7debian211string_view4dataEv(ptr noundef nonnull align 8 dereferenceable(16) %0) #2 comdat align 2 {
  %2 = alloca ptr, align 8
  store ptr %0, ptr %2, align 8
  %3 = load ptr, ptr %2, align 8
  %4 = getelementptr inbounds nuw %"class.absl::debian2::string_view", ptr %3, i32 0, i32 0
  %5 = load ptr, ptr %4, align 8
  ret ptr %5
}

; Function Attrs: mustprogress nounwind uwtable
define linkonce_odr void @_ZZN4absl7debian211string_view19CheckLengthInternalEmENKUlvE_clEv(ptr noundef nonnull align 1 dereferenceable(1) %0) #2 comdat align 2 {
  %2 = alloca ptr, align 8
  store ptr %0, ptr %2, align 8
  br label %3

3:                                                ; preds = %1
  call void @llvm.trap()
  unreachable

4:                                                ; No predecessors!
  ret void
}

; Function Attrs: mustprogress nounwind uwtable
define linkonce_odr void @_ZN4absl7debian24SpanIKNS0_19str_format_internal13FormatArgImplEEC2EPS4_m(ptr noundef nonnull align 8 dereferenceable(16) %0, ptr noundef %1, i64 noundef %2) unnamed_addr #2 comdat align 2 {
  %4 = alloca ptr, align 8
  %5 = alloca ptr, align 8
  %6 = alloca i64, align 8
  store ptr %0, ptr %4, align 8
  store ptr %1, ptr %5, align 8
  store i64 %2, ptr %6, align 8
  %7 = load ptr, ptr %4, align 8
  %8 = getelementptr inbounds nuw %"class.absl::debian2::Span", ptr %7, i32 0, i32 0
  %9 = load ptr, ptr %5, align 8
  store ptr %9, ptr %8, align 8
  %10 = getelementptr inbounds nuw %"class.absl::debian2::Span", ptr %7, i32 0, i32 1
  %11 = load i64, ptr %6, align 8
  store i64 %11, ptr %10, align 8
  ret void
}

; Function Attrs: mustprogress nounwind uwtable
define linkonce_odr noundef i64 @_ZNKSt16initializer_listIN4absl7debian219str_format_internal13FormatArgImplEE4sizeEv(ptr noundef nonnull align 8 dereferenceable(16) %0) #2 comdat align 2 {
  %2 = alloca ptr, align 8
  store ptr %0, ptr %2, align 8
  %3 = load ptr, ptr %2, align 8
  %4 = getelementptr inbounds nuw %"class.std::initializer_list", ptr %3, i32 0, i32 1
  %5 = load i64, ptr %4, align 8
  ret i64 %5
}

; Function Attrs: mustprogress nounwind uwtable
define linkonce_odr noundef ptr @_ZNKSt16initializer_listIN4absl7debian219str_format_internal13FormatArgImplEE5beginEv(ptr noundef nonnull align 8 dereferenceable(16) %0) #2 comdat align 2 {
  %2 = alloca ptr, align 8
  store ptr %0, ptr %2, align 8
  %3 = load ptr, ptr %2, align 8
  %4 = getelementptr inbounds nuw %"class.std::initializer_list", ptr %3, i32 0, i32 0
  %5 = load ptr, ptr %4, align 8
  ret ptr %5
}

; Function Attrs: mustprogress uwtable
define linkonce_odr void @_ZN4absl7debian219str_format_internal13FormatArgImpl4InitINSt7__cxx1112basic_stringIcSt11char_traitsIcESaIcEEEEEvRKT_(ptr noundef nonnull align 8 dereferenceable(16) %0, ptr noundef nonnull align 8 dereferenceable(32) %1) #0 comdat align 2 {
  %3 = alloca ptr, align 8
  %4 = alloca ptr, align 8
  %5 = alloca %"union.absl::debian2::str_format_internal::FormatArgImpl::Data", align 8
  store ptr %0, ptr %3, align 8
  store ptr %1, ptr %4, align 8
  %6 = load ptr, ptr %3, align 8
  %7 = load ptr, ptr %4, align 8
  %8 = call ptr @_ZN4absl7debian219str_format_internal13FormatArgImpl7ManagerINSt7__cxx1112basic_stringIcSt11char_traitsIcESaIcEEELNS2_13StoragePolicyE0EE8SetValueERKS9_(ptr noundef nonnull align 8 dereferenceable(32) %7)
  %9 = getelementptr inbounds nuw %"union.absl::debian2::str_format_internal::FormatArgImpl::Data", ptr %5, i32 0, i32 0
  store ptr %8, ptr %9, align 8
  %10 = getelementptr inbounds nuw %"class.absl::debian2::str_format_internal::FormatArgImpl", ptr %6, i32 0, i32 0
  call void @llvm.memcpy.p0.p0.i64(ptr align 8 %10, ptr align 8 %5, i64 8, i1 false)
  %11 = getelementptr inbounds nuw %"class.absl::debian2::str_format_internal::FormatArgImpl", ptr %6, i32 0, i32 1
  store ptr @_ZN4absl7debian219str_format_internal13FormatArgImpl8DispatchINSt7__cxx1112basic_stringIcSt11char_traitsIcESaIcEEEEEbNS2_4DataENS1_24FormatConversionSpecImplEPv, ptr %11, align 8
  ret void
}

; Function Attrs: mustprogress nounwind uwtable
define linkonce_odr void @_ZN4absl7debian219str_format_internal21UntypedFormatSpecImplC2ENS0_11string_viewE(ptr noundef nonnull align 8 dereferenceable(16) %0, ptr %1, i64 %2) unnamed_addr #2 comdat align 2 {
  %4 = alloca %"class.absl::debian2::string_view", align 8
  %5 = alloca ptr, align 8
  %6 = getelementptr inbounds nuw { ptr, i64 }, ptr %4, i32 0, i32 0
  store ptr %1, ptr %6, align 8
  %7 = getelementptr inbounds nuw { ptr, i64 }, ptr %4, i32 0, i32 1
  store i64 %2, ptr %7, align 8
  store ptr %0, ptr %5, align 8
  %8 = load ptr, ptr %5, align 8
  %9 = getelementptr inbounds nuw %"class.absl::debian2::str_format_internal::UntypedFormatSpecImpl", ptr %8, i32 0, i32 0
  %10 = call noundef ptr @_ZNK4absl7debian211string_view4dataEv(ptr noundef nonnull align 8 dereferenceable(16) %4) #6
  store ptr %10, ptr %9, align 8
  %11 = getelementptr inbounds nuw %"class.absl::debian2::str_format_internal::UntypedFormatSpecImpl", ptr %8, i32 0, i32 1
  %12 = call noundef i64 @_ZNK4absl7debian211string_view4sizeEv(ptr noundef nonnull align 8 dereferenceable(16) %4) #6
  store i64 %12, ptr %11, align 8
  ret void
}

; Function Attrs: mustprogress uwtable
define linkonce_odr noundef i64 @_ZN4absl7debian211string_view19CheckLengthInternalEm(i64 noundef %0) #0 comdat align 2 {
  %2 = alloca i64, align 8
  %3 = alloca %class.anon, align 1
  store i64 %0, ptr %2, align 8
  %4 = load i64, ptr %2, align 8
  %5 = icmp ule i64 %4, 9223372036854775807
  br i1 %5, label %6, label %7

6:                                                ; preds = %1
  br label %8

7:                                                ; preds = %1
  call void @_ZZN4absl7debian211string_view19CheckLengthInternalEmENKUlvE_clEv(ptr noundef nonnull align 1 dereferenceable(1) %3)
  br label %8

8:                                                ; preds = %7, %6
  %9 = load i64, ptr %2, align 8
  ret i64 %9
}

; Function Attrs: mustprogress nounwind uwtable
define linkonce_odr noundef i64 @_ZN4absl7debian211string_view14StrlenInternalEPKc(ptr noundef %0) #2 comdat align 2 {
  %2 = alloca ptr, align 8
  store ptr %0, ptr %2, align 8
  %3 = load ptr, ptr %2, align 8
  %4 = call i64 @strlen(ptr noundef %3) #6
  ret i64 %4
}

; Function Attrs: mustprogress nounwind uwtable
define linkonce_odr void @_ZN4absl7debian24SpanIKNS0_19str_format_internal13FormatArgImplEEC2IS4_S4_EESt16initializer_listIS3_E(ptr noundef nonnull align 8 dereferenceable(16) %0, ptr %1, i64 %2) unnamed_addr #2 comdat align 2 {
  %4 = alloca %"class.std::initializer_list", align 8
  %5 = alloca ptr, align 8
  %6 = getelementptr inbounds nuw { ptr, i64 }, ptr %4, i32 0, i32 0
  store ptr %1, ptr %6, align 8
  %7 = getelementptr inbounds nuw { ptr, i64 }, ptr %4, i32 0, i32 1
  store i64 %2, ptr %7, align 8
  store ptr %0, ptr %5, align 8
  %8 = load ptr, ptr %5, align 8
  %9 = call noundef ptr @_ZNKSt16initializer_listIN4absl7debian219str_format_internal13FormatArgImplEE5beginEv(ptr noundef nonnull align 8 dereferenceable(16) %4) #6
  %10 = call noundef i64 @_ZNKSt16initializer_listIN4absl7debian219str_format_internal13FormatArgImplEE4sizeEv(ptr noundef nonnull align 8 dereferenceable(16) %4) #6
  call void @_ZN4absl7debian24SpanIKNS0_19str_format_internal13FormatArgImplEEC2EPS4_m(ptr noundef nonnull align 8 dereferenceable(16) %8, ptr noundef %9, i64 noundef %10) #6
  ret void
}

; Function Attrs: mustprogress uwtable
define linkonce_odr void @_ZN4absl7debian219str_format_internal13FormatArgImplC2INSt7__cxx1112basic_stringIcSt11char_traitsIcESaIcEEEEERKT_(ptr noundef nonnull align 8 dereferenceable(16) %0, ptr noundef nonnull align 8 dereferenceable(32) %1) unnamed_addr #0 comdat align 2 {
  %3 = alloca ptr, align 8
  %4 = alloca ptr, align 8
  store ptr %0, ptr %3, align 8
  store ptr %1, ptr %4, align 8
  %5 = load ptr, ptr %3, align 8
  %6 = load ptr, ptr %4, align 8
  call void @_ZN4absl7debian219str_format_internal13FormatArgImpl4InitINSt7__cxx1112basic_stringIcSt11char_traitsIcESaIcEEEEEvRKT_(ptr noundef nonnull align 8 dereferenceable(16) %5, ptr noundef nonnull align 8 dereferenceable(32) %6)
  ret void
}

; Function Attrs: mustprogress nounwind uwtable
define linkonce_odr noundef nonnull align 8 dereferenceable(16) ptr @_ZN4absl7debian219str_format_internal21UntypedFormatSpecImpl7ExtractINS1_18FormatSpecTemplateIJLNS0_23FormatConversionCharSetE4EEEEEERKS2_RKT_(ptr noundef nonnull align 8 dereferenceable(16) %0) #2 comdat align 2 {
  %2 = alloca ptr, align 8
  store ptr %0, ptr %2, align 8
  %3 = load ptr, ptr %2, align 8
  %4 = getelementptr inbounds nuw %"class.absl::debian2::UntypedFormatSpec", ptr %3, i32 0, i32 0
  ret ptr %4
}

; Function Attrs: mustprogress uwtable
define linkonce_odr void @_ZN4absl7debian217UntypedFormatSpecC2ENS0_11string_viewE(ptr noundef nonnull align 8 dereferenceable(16) %0, ptr %1, i64 %2) unnamed_addr #0 comdat align 2 {
  %4 = alloca %"class.absl::debian2::string_view", align 8
  %5 = alloca ptr, align 8
  %6 = alloca %"class.absl::debian2::string_view", align 8
  %7 = getelementptr inbounds nuw { ptr, i64 }, ptr %4, i32 0, i32 0
  store ptr %1, ptr %7, align 8
  %8 = getelementptr inbounds nuw { ptr, i64 }, ptr %4, i32 0, i32 1
  store i64 %2, ptr %8, align 8
  store ptr %0, ptr %5, align 8
  %9 = load ptr, ptr %5, align 8
  %10 = getelementptr inbounds nuw %"class.absl::debian2::UntypedFormatSpec", ptr %9, i32 0, i32 0
  call void @llvm.memcpy.p0.p0.i64(ptr align 8 %6, ptr align 8 %4, i64 16, i1 false)
  %11 = getelementptr inbounds nuw { ptr, i64 }, ptr %6, i32 0, i32 0
  %12 = load ptr, ptr %11, align 8
  %13 = getelementptr inbounds nuw { ptr, i64 }, ptr %6, i32 0, i32 1
  %14 = load i64, ptr %13, align 8
  call void @_ZN4absl7debian219str_format_internal21UntypedFormatSpecImplC2ENS0_11string_viewE(ptr noundef nonnull align 8 dereferenceable(16) %10, ptr %12, i64 %14)
  ret void
}

; Function Attrs: mustprogress uwtable
define linkonce_odr void @_ZN4absl7debian211string_viewC2EPKc(ptr noundef nonnull align 8 dereferenceable(16) %0, ptr noundef %1) unnamed_addr #0 comdat align 2 {
  %3 = alloca ptr, align 8
  %4 = alloca ptr, align 8
  store ptr %0, ptr %3, align 8
  store ptr %1, ptr %4, align 8
  %5 = load ptr, ptr %3, align 8
  %6 = getelementptr inbounds nuw %"class.absl::debian2::string_view", ptr %5, i32 0, i32 0
  %7 = load ptr, ptr %4, align 8
  store ptr %7, ptr %6, align 8
  %8 = getelementptr inbounds nuw %"class.absl::debian2::string_view", ptr %5, i32 0, i32 1
  %9 = load ptr, ptr %4, align 8
  %10 = icmp ne ptr %9, null
  br i1 %10, label %11, label %15

11:                                               ; preds = %2
  %12 = load ptr, ptr %4, align 8
  %13 = call noundef i64 @_ZN4absl7debian211string_view14StrlenInternalEPKc(ptr noundef %12)
  %14 = call noundef i64 @_ZN4absl7debian211string_view19CheckLengthInternalEm(i64 noundef %13)
  br label %16

15:                                               ; preds = %2
  br label %16

16:                                               ; preds = %15, %11
  %17 = phi i64 [ %14, %11 ], [ 0, %15 ]
  store i64 %17, ptr %8, align 8
  ret void
}

; Function Attrs: mustprogress uwtable
define linkonce_odr void @_ZN4absl7debian29StrFormatIJNSt7__cxx1112basic_stringIcSt11char_traitsIcESaIcEEEEEES7_RKNS0_19str_format_internal18FormatSpecTemplateIJXspclsr19str_format_internalE14ArgumentToConvIT_EEEEEEDpRKSA_(ptr dead_on_unwind noalias writable sret(%"class.std::__cxx11::basic_string") align 8 %0, ptr noundef nonnull align 8 dereferenceable(16) %1, ptr noundef nonnull align 8 dereferenceable(32) %2) #0 comdat {
  %4 = alloca ptr, align 8
  %5 = alloca ptr, align 8
  %6 = alloca ptr, align 8
  %7 = alloca %"class.absl::debian2::str_format_internal::UntypedFormatSpecImpl", align 8
  %8 = alloca %"class.absl::debian2::Span", align 8
  %9 = alloca %"class.std::initializer_list", align 8
  %10 = alloca [1 x %"class.absl::debian2::str_format_internal::FormatArgImpl"], align 8
  store ptr %0, ptr %4, align 8
  store ptr %1, ptr %5, align 8
  store ptr %2, ptr %6, align 8
  %11 = load ptr, ptr %5, align 8
  %12 = call noundef nonnull align 8 dereferenceable(16) ptr @_ZN4absl7debian219str_format_internal21UntypedFormatSpecImpl7ExtractINS1_18FormatSpecTemplateIJLNS0_23FormatConversionCharSetE4EEEEEERKS2_RKT_(ptr noundef nonnull align 8 dereferenceable(16) %11)
  call void @llvm.memcpy.p0.p0.i64(ptr align 8 %7, ptr align 8 %12, i64 16, i1 false)
  %13 = load ptr, ptr %6, align 8
  call void @_ZN4absl7debian219str_format_internal13FormatArgImplC2INSt7__cxx1112basic_stringIcSt11char_traitsIcESaIcEEEEERKT_(ptr noundef nonnull align 8 dereferenceable(16) %10, ptr noundef nonnull align 8 dereferenceable(32) %13)
  %14 = getelementptr inbounds nuw %"class.std::initializer_list", ptr %9, i32 0, i32 0
  store ptr %10, ptr %14, align 8
  %15 = getelementptr inbounds nuw %"class.std::initializer_list", ptr %9, i32 0, i32 1
  store i64 1, ptr %15, align 8
  %16 = getelementptr inbounds nuw { ptr, i64 }, ptr %9, i32 0, i32 0
  %17 = load ptr, ptr %16, align 8
  %18 = getelementptr inbounds nuw { ptr, i64 }, ptr %9, i32 0, i32 1
  %19 = load i64, ptr %18, align 8
  call void @_ZN4absl7debian24SpanIKNS0_19str_format_internal13FormatArgImplEEC2IS4_S4_EESt16initializer_listIS3_E(ptr noundef nonnull align 8 dereferenceable(16) %8, ptr %17, i64 %19) #6
  %20 = getelementptr inbounds nuw { ptr, i64 }, ptr %7, i32 0, i32 0
  %21 = load ptr, ptr %20, align 8
  %22 = getelementptr inbounds nuw { ptr, i64 }, ptr %7, i32 0, i32 1
  %23 = load i64, ptr %22, align 8
  %24 = getelementptr inbounds nuw { ptr, i64 }, ptr %8, i32 0, i32 0
  %25 = load ptr, ptr %24, align 8
  %26 = getelementptr inbounds nuw { ptr, i64 }, ptr %8, i32 0, i32 1
  %27 = load i64, ptr %26, align 8
  call void @_ZN4absl7debian219str_format_internal10FormatPackB5cxx11ENS1_21UntypedFormatSpecImplENS0_4SpanIKNS1_13FormatArgImplEEE(ptr dead_on_unwind writable sret(%"class.std::__cxx11::basic_string") align 8 %0, ptr %21, i64 %23, ptr %25, i64 %27)
  ret void
}

; Function Attrs: mustprogress uwtable
define linkonce_odr void @_ZN4absl7debian219str_format_internal18FormatSpecTemplateIJLNS0_23FormatConversionCharSetE4EEEC2EUa9enable_ifIXclL_ZNS1_15ValidFormatImplIJLS3_4EEEEbNS0_11string_viewEEfL0p_EEEPKc(ptr noundef nonnull align 8 dereferenceable(16) %0, ptr noundef %1) unnamed_addr #0 comdat align 2 {
  %3 = alloca ptr, align 8
  %4 = alloca ptr, align 8
  %5 = alloca %"class.absl::debian2::string_view", align 8
  store ptr %0, ptr %3, align 8
  store ptr %1, ptr %4, align 8
  %6 = load ptr, ptr %3, align 8
  %7 = load ptr, ptr %4, align 8
  call void @_ZN4absl7debian211string_viewC2EPKc(ptr noundef nonnull align 8 dereferenceable(16) %5, ptr noundef %7)
  %8 = getelementptr inbounds nuw { ptr, i64 }, ptr %5, i32 0, i32 0
  %9 = load ptr, ptr %8, align 8
  %10 = getelementptr inbounds nuw { ptr, i64 }, ptr %5, i32 0, i32 1
  %11 = load i64, ptr %10, align 8
  call void @_ZN4absl7debian217UntypedFormatSpecC2ENS0_11string_viewE(ptr noundef nonnull align 8 dereferenceable(16) %6, ptr %9, i64 %11)
  ret void
}

; Function Attrs: mustprogress uwtable
define void @_ZN10open_spiel14HulhGameStringERKNSt7__cxx1112basic_stringIcSt11char_traitsIcESaIcEEE(ptr dead_on_unwind noalias writable sret(%"class.std::__cxx11::basic_string") align 8 %0, ptr noundef nonnull align 8 dereferenceable(32) %1) #0 {
  %3 = alloca ptr, align 8
  %4 = alloca ptr, align 8
  %5 = alloca %"class.absl::debian2::str_format_internal::FormatSpecTemplate", align 8
  store ptr %0, ptr %3, align 8
  store ptr %1, ptr %4, align 8
  call void @_ZN4absl7debian219str_format_internal18FormatSpecTemplateIJLNS0_23FormatConversionCharSetE4EEEC2EUa9enable_ifIXclL_ZNS1_15ValidFormatImplIJLS3_4EEEEbNS0_11string_viewEEfL0p_EEEPKc(ptr noundef nonnull align 8 dereferenceable(16) %5, ptr noundef @.str.1)
  %6 = load ptr, ptr %4, align 8
  call void @_ZN4absl7debian29StrFormatIJNSt7__cxx1112basic_stringIcSt11char_traitsIcESaIcEEEEEES7_RKNS0_19str_format_internal18FormatSpecTemplateIJXspclsr19str_format_internalE14ArgumentToConvIT_EEEEEEDpRKSA_(ptr dead_on_unwind writable sret(%"class.std::__cxx11::basic_string") align 8 %0, ptr noundef nonnull align 8 dereferenceable(16) %5, ptr noundef nonnull align 8 dereferenceable(32) %6)
  ret void
}